
Allocating common symbols
Common symbol       size              file

v_scr_y             0x4               drivers/vga.o
kmem_list_head      0x8               mm/slab.o
key_buffer          0x5               drivers/keyboard.o
kmem_cache_st       0x4c              mm/slab.o
mm_buddy_array      0x233c            mm/buddy.o
v_scr_x             0x4               drivers/vga.o
init_task           0xa0              kernel/sched.o
new_idt             0x800             kernel/traps.o
task_list_head      0x8               init/init.o
current             0x4               init/init.o
mem_map             0x10000           init/init.o
timer_list          0x400             kernel/timer.o
timer_list_head     0x8               kernel/timer.o

Memory Configuration

Name             Origin             Length             Attributes
*default*        0x0000000000000000 0xffffffffffffffff

Linker script and memory map

LOAD boot/load.o
LOAD init/init.o
LOAD kernel/gdt.o
LOAD kernel/trap_asm.o
LOAD kernel/traps.o
LOAD kernel/timer.o
LOAD kernel/sched.o
LOAD kernel/system_call.o
LOAD kernel/kthread.o
LOAD kernel/fork.o
LOAD kernel/sys.o
LOAD kernel/panic.o
LOAD mm/memory.o
LOAD mm/slab.o
LOAD mm/buddy.o
LOAD mm/page_fault.o
LOAD fs/fs.o
LOAD drivers/keyboard.o
LOAD drivers/hd.o
LOAD lib/printk.o
LOAD drivers/vga.o
LOAD kernel/spinlock.o
LOAD lib/string.o
                0x0000000000000000                LOAD_OFFSET = 0x0
                0x0000000000100000                . = (LOAD_OFFSET + 0x100000)
                0x0000000000100000                _text = .

.text           0x0000000000100000     0x53f2
 *(.text)
 .text          0x0000000000100000       0x50 boot/load.o
                0x0000000000100000                startup_32
 .text          0x0000000000100050      0x17e init/init.o
                0x00000000001000b0                run_init_task
                0x0000000000100106                run_task1
                0x000000000010012e                run_task2
                0x000000000010013f                run_task3
                0x0000000000100150                init
                0x0000000000100178                kernel_start
 *fill*         0x00000000001001ce        0x2 9090
 .text          0x00000000001001d0      0x274 kernel/gdt.o
                0x00000000001001d0                __set_gdt_desc
                0x000000000010024c                set_gdt_desc
                0x0000000000100287                set_ldt_desc
                0x00000000001002c2                set_tss_desc
                0x00000000001002fd                setup_gdt
                0x0000000000100388                print_init_ldt_list
                0x00000000001003e9                print_gdt_list
 .text          0x0000000000100444      0x3d7 kernel/trap_asm.o
                0x0000000000100444                divide_error
                0x0000000000100474                debug
                0x00000000001004a4                nmi
                0x00000000001004d4                int3
                0x0000000000100504                overflow
                0x0000000000100534                bounds
                0x0000000000100564                invalid_op
                0x0000000000100594                coprocessor_segment_overrun
                0x00000000001005c4                reserved
                0x00000000001005f4                irq13
                0x0000000000100624                device_not_available
                0x0000000000100654                timer_interrupt
                0x0000000000100688                keyboard_interrupt
                0x00000000001006ae                hd_interrupt
                0x00000000001006dc                parallel_interrupt
                0x00000000001006e4                double_fault
                0x000000000010070e                invalid_TSS
                0x0000000000100738                segment_not_present
                0x0000000000100762                stack_segment
                0x000000000010078c                general_protection
                0x00000000001007b6                page_fault
                0x00000000001007e2                default_int
 *fill*         0x000000000010081b        0x1 9090
 .text          0x000000000010081c      0x576 kernel/traps.o
                0x000000000010081c                set_idt_desc
                0x0000000000100853                setup_idt
                0x0000000000100898                do_divide_error
                0x00000000001008b3                do_debug
                0x00000000001008ce                do_nmi
                0x00000000001008e9                do_int3
                0x0000000000100904                do_overflow
                0x000000000010091f                do_bounds
                0x000000000010093a                do_invalid_op
                0x0000000000100955                do_coprocessor_segment_overrun
                0x0000000000100970                do_reserved
                0x000000000010098b                do_irq13
                0x00000000001009a6                do_double_fault
                0x00000000001009c1                do_invalid_tss
                0x00000000001009dc                do_segment_not_present
                0x00000000001009f7                do_stack_segment
                0x0000000000100a12                do_general_protection
                0x0000000000100a2d                do_device_not_available
                0x0000000000100a48                init_trap
                0x0000000000100ce2                io_delay
                0x0000000000100cf1                init_8259A
 *fill*         0x0000000000100d92        0x2 9090
 .text          0x0000000000100d94      0x2e2 kernel/timer.o
                0x0000000000100de3                add_timer
                0x0000000000100e68                del_timer
                0x0000000000100ec5                do_timer
                0x0000000000100f80                init_timer
                0x0000000000100ffa                __timer_test
                0x000000000010100d                __timer_test1
                0x0000000000101020                __timer_test2
                0x0000000000101033                timer_test
 *fill*         0x0000000000101076        0x2 9090
 .text          0x0000000000101078      0x454 kernel/sched.o
                0x0000000000101078                show_task_status
                0x0000000000101103                schedule
                0x0000000000101220                setup_init_task
                0x0000000000101419                init_schedule
                0x00000000001014a6                sys_getpid
                0x00000000001014b2                sys_pause
 .text          0x00000000001014cc       0xa7 kernel/system_call.o
                0x00000000001014d6                system_call
                0x000000000010151a                ret_from_sys_call
 *fill*         0x0000000000101573        0x1 9090
 .text          0x0000000000101574      0x33c kernel/kthread.o
                0x00000000001015a3                creat_kthread
 .text          0x00000000001018b0      0x691 kernel/fork.o
                0x00000000001018df                get_pid
                0x0000000000101913                do_fork
                0x0000000000101c42                sys_creat_task
 *fill*         0x0000000000101f41        0x3 9090
 .text          0x0000000000101f44       0x5c kernel/sys.o
                0x0000000000101f44                sys_write_s
                0x0000000000101f5f                sys_write_i
                0x0000000000101f7a                sys_printf
 .text          0x0000000000101fa0      0x11c kernel/panic.o
                0x0000000000101fa0                panic
                0x000000000010209f                oops
 .text          0x00000000001020bc      0x483 mm/memory.o
                0x00000000001020bc                setup_kernel_pte
                0x0000000000102171                setup_kernel_pte_new
                0x0000000000102232                setup_task_pages
                0x000000000010231a                copy_page_tables
                0x00000000001024b2                init_mm
 *fill*         0x000000000010253f        0x1 9090
 .text          0x0000000000102540      0xf3d mm/slab.o
                0x0000000000102581                __show_slab_list
                0x00000000001025fb                show_slab_list
                0x00000000001026a7                slab_bufctl
                0x00000000001026af                get_slab_obj
                0x000000000010271e                set_slab_obj_cache
                0x0000000000102783                check_slab_size
                0x00000000001027bc                expand_slab
                0x0000000000102829                kmalloc
                0x0000000000102970                addr_to_cache_idx
                0x00000000001029ba                search_slab
                0x0000000000102a24                put_slab_obj
                0x0000000000102ade                kfree
                0x0000000000102b67                compute_slab_obj_num
                0x0000000000102b87                compute_slab_color_num
                0x0000000000102b9f                get_slab_color
                0x0000000000102bcc                set_slab_base_addr
                0x0000000000102be3                fix_slab_base_addr
                0x0000000000102bef                __init_slab
                0x0000000000102d2b                init_slab
                0x0000000000102d93                init_general_slab_cache
                0x0000000000102edf                kmem_cache_alloc
                0x0000000000102fd3                creat_kmem_cache
                0x00000000001030ca                search_slab_cache
                0x0000000000103139                kmem_cache_free
                0x00000000001031bc                kmem_cache_destory
                0x00000000001031f3                print_kmem_cache_list
                0x00000000001032a3                init_kmem_cache
                0x000000000010335e                mm_test
 *fill*         0x000000000010347d        0x3 9090
 .text          0x0000000000103480      0x75c mm/buddy.o
                0x0000000000103480                check_buddy_size
                0x00000000001034b9                alloc_buddy_chunk
                0x000000000010356e                __alloc_page
                0x0000000000103735                alloc_page
                0x00000000001037c1                free_page
                0x00000000001038da                __show_buddy_list
                0x0000000000103976                show_buddy_list
                0x000000000010399f                init_buddy_list
                0x0000000000103aec                compute_buddy_num
                0x0000000000103b4e                init_buddy_memory
                0x0000000000103b9e                init_buddy
 .text          0x0000000000103bdc      0x21c mm/page_fault.o
                0x0000000000103bdc                copy_page
                0x0000000000103bf5                do_page_cow
                0x0000000000103d35                do_page_fault
 .text          0x0000000000103df8       0x33 fs/fs.o
                0x0000000000103df8                init_fs
 *fill*         0x0000000000103e2b        0x1 9090
 .text          0x0000000000103e2c      0x5e4 drivers/keyboard.o
                0x0000000000103e2c                handle_esc
                0x0000000000103e47                handle_backspace
                0x0000000000103eb5                handle_tab
                0x0000000000103f2a                handle_enter
                0x0000000000103f80                handle_ctrl_l
                0x0000000000103f8e                handle_shift_l
                0x0000000000103f9c                handle_shift_r
                0x0000000000103faa                handle_alt_l
                0x0000000000103fb8                handle_caps_lock
                0x0000000000103fd3                handle_F_1_10
                0x0000000000103fe1                handle_num_lock
                0x0000000000103fef                handle_scroll_lock
                0x0000000000103ffd                handle_home
                0x000000000010400b                handle_up
                0x0000000000104047                handle_pageup
                0x0000000000104062                handle_minus
                0x0000000000104070                handle_left
                0x00000000001040ac                handle_mid
                0x00000000001040ba                handle_right
                0x00000000001040f7                handle_plus
                0x0000000000104105                handle_end
                0x0000000000104113                handle_down
                0x0000000000104150                handle_pagedown
                0x000000000010416b                handle_ins
                0x0000000000104179                handle_dot
                0x0000000000104187                handle_f1
                0x00000000001041a2                handle_f2
                0x00000000001041b0                handle_f3
                0x00000000001041be                handle_f4
                0x00000000001041cc                handle_f5
                0x00000000001041da                handle_f6
                0x00000000001041e8                handle_f7
                0x00000000001041f6                handle_f8
                0x0000000000104204                handle_f9
                0x0000000000104212                handle_f10
                0x0000000000104220                handle_f11
                0x000000000010422e                handle_f12
                0x000000000010423c                handle_print
                0x0000000000104294                handle_shift
                0x00000000001042c2                do_keyboard
                0x00000000001043c0                init_keyboard
 .text          0x0000000000104410      0x423 drivers/hd.o
                0x0000000000104410                hd_ready_status
                0x0000000000104461                hd_transfer_status
                0x00000000001044b2                hd_read
                0x00000000001045ae                hd_write
                0x00000000001046aa                hd_test
                0x0000000000104715                setup_dpt
                0x0000000000104794                do_hd
                0x00000000001047ac                init_hd
 *fill*         0x0000000000104833        0x1 9090
 .text          0x0000000000104834      0x4b0 lib/printk.o
                0x0000000000104834                vfprintf
                0x0000000000104cbe                printk
 .text          0x0000000000104ce4      0x32c drivers/vga.o
                0x0000000000104ce4                __put_c
                0x0000000000104d05                put_c
                0x0000000000104e9f                put_s
                0x0000000000104edc                set_cursor
                0x0000000000104f30                __screen_roll
                0x0000000000104f58                screen_roll
                0x0000000000104fc4                screen_clear
                0x0000000000104ffb                init_vga
 .text          0x0000000000105010       0x47 kernel/spinlock.o
                0x0000000000105010                __local_irq_enable
                0x0000000000105012                __local_irq_disable
                0x0000000000105014                __local_irq_save
                0x0000000000105024                __local_irq_restore
                0x000000000010502a                init_spin_lock
                0x0000000000105035                __spin_lock
                0x000000000010504d                __spin_unlock
 *fill*         0x0000000000105057        0x1 9090
 .text          0x0000000000105058      0x39a lib/string.o
                0x0000000000105058                itoa
                0x0000000000105170                strlen
                0x00000000001051b4                strcpy
                0x00000000001051fa                strncpy
                0x0000000000105257                strcmp
                0x00000000001052d9                strncmp
                0x0000000000105372                memcpy
                0x00000000001053b9                memset
                0x00000000001053f2                _etext = .

.iplt           0x00000000001053f4        0x0
 .iplt          0x0000000000000000        0x0 boot/load.o

.rodata         0x00000000001053f4      0x917
 *(.rodata)
 .rodata        0x00000000001053f4       0x4f init/init.o
 .rodata        0x0000000000105443       0x35 kernel/gdt.o
 .rodata        0x0000000000105478       0xc2 kernel/traps.o
 *fill*         0x000000000010553a        0x2 00
 .rodata        0x000000000010553c       0x50 kernel/timer.o
 .rodata        0x000000000010558c       0x3a kernel/sched.o
 .rodata        0x00000000001055c6       0x4b kernel/kthread.o
 *fill*         0x0000000000105611        0x3 00
 .rodata        0x0000000000105614       0x4a kernel/fork.o
 .rodata        0x000000000010565e        0x8 kernel/sys.o
 *fill*         0x0000000000105666        0x2 00
 .rodata        0x0000000000105668      0x11d kernel/panic.o
 *fill*         0x0000000000105785        0x3 00
 .rodata        0x0000000000105788       0xc6 mm/memory.o
 *fill*         0x000000000010584e        0x2 00
 .rodata        0x0000000000105850      0x1fe mm/slab.o
 *fill*         0x0000000000105a4e        0x2 00
 .rodata        0x0000000000105a50       0xc8 mm/buddy.o
 .rodata        0x0000000000105b18      0x10b mm/page_fault.o
 *fill*         0x0000000000105c23        0x1 00
 .rodata        0x0000000000105c24       0x40 fs/fs.o
 .rodata        0x0000000000105c64       0x2f drivers/keyboard.o
 *fill*         0x0000000000105c93        0x1 00
 .rodata        0x0000000000105c94       0x77 drivers/hd.o
 *(.rodata.*)

.rel.dyn        0x0000000000105d0c        0x0
 .rel.iplt      0x0000000000000000        0x0 boot/load.o
 .rel.text      0x0000000000000000        0x0 boot/load.o
                0x0000000000105d10                . = ALIGN (0x10)

.data           0x0000000000105d20      0x2ec
 *(.data)
 .data          0x0000000000105d20        0x0 boot/load.o
 .data          0x0000000000105d20        0x0 init/init.o
 .data          0x0000000000105d20        0x4 kernel/gdt.o
                0x0000000000105d20                gdt_desc_idx
 .data          0x0000000000105d24        0x0 kernel/trap_asm.o
 .data          0x0000000000105d24        0x0 kernel/traps.o
 .data          0x0000000000105d24        0x0 kernel/timer.o
 .data          0x0000000000105d24        0x8 kernel/sched.o
                0x0000000000105d24                stack_start
 .data          0x0000000000105d2c        0x0 kernel/system_call.o
 .data          0x0000000000105d2c        0x0 kernel/kthread.o
 .data          0x0000000000105d2c        0x0 kernel/fork.o
 .data          0x0000000000105d2c        0x0 kernel/sys.o
 .data          0x0000000000105d2c        0x0 kernel/panic.o
 .data          0x0000000000105d2c        0x4 mm/memory.o
                0x0000000000105d2c                pg_dir
 *fill*         0x0000000000105d30       0x10 00
 .data          0x0000000000105d40       0x28 mm/slab.o
 *fill*         0x0000000000105d68       0x18 00
 .data          0x0000000000105d80       0x2c mm/buddy.o
                0x0000000000105d80                buddy_size
 .data          0x0000000000105dac        0x0 mm/page_fault.o
 .data          0x0000000000105dac        0x0 fs/fs.o
 *fill*         0x0000000000105dac       0x14 00
 .data          0x0000000000105dc0      0x240 drivers/keyboard.o
                0x0000000000105dc0                keymap
                0x0000000000105e20                shift_keymap
                0x0000000000105e80                do_handle_code
 .data          0x0000000000106000        0xc drivers/hd.o
                0x0000000000106000                HD
 .data          0x000000000010600c        0x0 lib/printk.o
 .data          0x000000000010600c        0x0 drivers/vga.o
 .data          0x000000000010600c        0x0 kernel/spinlock.o
 .data          0x000000000010600c        0x0 lib/string.o
                0x000000000010600c                _edata = .

.igot.plt       0x000000000010600c        0x0
 .igot.plt      0x0000000000000000        0x0 boot/load.o
                0x0000000000106010                . = ALIGN (0x10)
                0x0000000000106010                __bss_start = .

.bss            0x0000000000106020    0x2658c
 *(.bss)
 .bss           0x0000000000106020        0x0 boot/load.o
 .bss           0x0000000000106020        0x0 init/init.o
 .bss           0x0000000000106020    0x10000 kernel/gdt.o
                0x0000000000106020                new_gdt
 .bss           0x0000000000116020        0x0 kernel/trap_asm.o
 .bss           0x0000000000116020        0x0 kernel/traps.o
 .bss           0x0000000000116020        0x4 kernel/timer.o
                0x0000000000116020                timer_tick
 *fill*         0x0000000000116024       0x1c 00
 .bss           0x0000000000116040     0x3000 kernel/sched.o
                0x0000000000116040                init_task_stack
                0x0000000000117040                user_stack
                0x0000000000118040                init_user_stack
 .bss           0x0000000000119040        0x0 kernel/system_call.o
 .bss           0x0000000000119040        0x0 kernel/kthread.o
 .bss           0x0000000000119040        0x4 kernel/fork.o
                0x0000000000119040                last_pid
 .bss           0x0000000000119044        0x0 kernel/sys.o
 .bss           0x0000000000119044        0x0 kernel/panic.o
 .bss           0x0000000000119044        0x0 mm/memory.o
 *fill*         0x0000000000119044       0x1c 00
 .bss           0x0000000000119060      0x2f8 mm/slab.o
 .bss           0x0000000000119358        0x8 mm/buddy.o
                0x0000000000119358                buddy_chunk_num
                0x000000000011935c                mm_buddy_base
 .bss           0x0000000000119360        0x0 mm/page_fault.o
 .bss           0x0000000000119360        0x0 fs/fs.o
 .bss           0x0000000000119360      0x1a0 drivers/keyboard.o
                0x0000000000119360                key_buffer_count
                0x0000000000119364                shift_flag
                0x0000000000119368                caps_lock_flag
                0x000000000011936c                e0_flag
                0x0000000000119380                do_handle_e0_code
 .bss           0x0000000000119500        0x0 drivers/hd.o
 .bss           0x0000000000119500        0x0 lib/printk.o
 .bss           0x0000000000119500        0x0 drivers/vga.o
 .bss           0x0000000000119500        0x0 kernel/spinlock.o
 .bss           0x0000000000119500        0x0 lib/string.o
 COMMON         0x0000000000119500    0x10020 init/init.o
                0x0000000000119500                task_list_head
                0x0000000000119508                current
                0x0000000000119520                mem_map
 COMMON         0x0000000000129520      0x800 kernel/traps.o
                0x0000000000129520                new_idt
 COMMON         0x0000000000129d20      0x408 kernel/timer.o
                0x0000000000129d20                timer_list
                0x000000000012a120                timer_list_head
 *fill*         0x000000000012a128       0x18 00
 COMMON         0x000000000012a140       0xa0 kernel/sched.o
                0x000000000012a140                init_task
 COMMON         0x000000000012a1e0       0x6c mm/slab.o
                0x000000000012a1e0                kmem_list_head
                0x000000000012a200                kmem_cache_st
 *fill*         0x000000000012a24c       0x14 00
 COMMON         0x000000000012a260     0x233c mm/buddy.o
                0x000000000012a260                mm_buddy_array
 COMMON         0x000000000012c59c        0x5 drivers/keyboard.o
                0x000000000012c59c                key_buffer
 *fill*         0x000000000012c5a1        0x3 00
 COMMON         0x000000000012c5a4        0x8 drivers/vga.o
                0x000000000012c5a4                v_scr_y
                0x000000000012c5a8                v_scr_x
                0x000000000012c5ac                _end = .
OUTPUT(kernel.bin elf32-i386)

.comment        0x0000000000000000       0x55
 .comment       0x0000000000000000       0x2a init/init.o
                                         0x2b (size before relaxing)
 .comment       0x0000000000000000       0x2b kernel/gdt.o
 .comment       0x0000000000000000       0x2b kernel/traps.o
 .comment       0x0000000000000000       0x2b kernel/timer.o
 .comment       0x0000000000000000       0x2b kernel/sched.o
 .comment       0x0000000000000000       0x2b kernel/kthread.o
 .comment       0x0000000000000000       0x2b kernel/fork.o
 .comment       0x0000000000000000       0x2b kernel/sys.o
 .comment       0x0000000000000000       0x2b kernel/panic.o
 .comment       0x0000000000000000       0x2b mm/memory.o
 .comment       0x0000000000000000       0x2b mm/slab.o
 .comment       0x0000000000000000       0x2b mm/buddy.o
 .comment       0x0000000000000000       0x2b mm/page_fault.o
 .comment       0x000000000000002a       0x2b fs/fs.o
                                         0x2c (size before relaxing)
 .comment       0x0000000000000000       0x2c drivers/keyboard.o
 .comment       0x0000000000000000       0x2c drivers/hd.o
 .comment       0x0000000000000000       0x2b lib/printk.o
 .comment       0x0000000000000000       0x2c drivers/vga.o
 .comment       0x0000000000000000       0x2b kernel/spinlock.o
 .comment       0x0000000000000000       0x2b lib/string.o

.note.GNU-stack
                0x0000000000000000        0x0
 .note.GNU-stack
                0x0000000000000000        0x0 init/init.o
 .note.GNU-stack
                0x0000000000000000        0x0 kernel/gdt.o
 .note.GNU-stack
                0x0000000000000000        0x0 kernel/traps.o
 .note.GNU-stack
                0x0000000000000000        0x0 kernel/timer.o
 .note.GNU-stack
                0x0000000000000000        0x0 kernel/sched.o
 .note.GNU-stack
                0x0000000000000000        0x0 kernel/kthread.o
 .note.GNU-stack
                0x0000000000000000        0x0 kernel/fork.o
 .note.GNU-stack
                0x0000000000000000        0x0 kernel/sys.o
 .note.GNU-stack
                0x0000000000000000        0x0 kernel/panic.o
 .note.GNU-stack
                0x0000000000000000        0x0 mm/memory.o
 .note.GNU-stack
                0x0000000000000000        0x0 mm/slab.o
 .note.GNU-stack
                0x0000000000000000        0x0 mm/buddy.o
 .note.GNU-stack
                0x0000000000000000        0x0 mm/page_fault.o
 .note.GNU-stack
                0x0000000000000000        0x0 fs/fs.o
 .note.GNU-stack
                0x0000000000000000        0x0 drivers/keyboard.o
 .note.GNU-stack
                0x0000000000000000        0x0 drivers/hd.o
 .note.GNU-stack
                0x0000000000000000        0x0 lib/printk.o
 .note.GNU-stack
                0x0000000000000000        0x0 drivers/vga.o
 .note.GNU-stack
                0x0000000000000000        0x0 kernel/spinlock.o
 .note.GNU-stack
                0x0000000000000000        0x0 lib/string.o
